; ModuleID = '5/666.c'
source_filename = "5/666.c"
target datalayout = "e-m:e-p270:32:32-p271:32:32-p272:64:64-i64:64-f80:128-n8:16:32:64-S128"
target triple = "x86_64-pc-linux-gnu"

@.str = private unnamed_addr constant [4 x i8] c"%lf\00", align 1
@.str.1 = private unnamed_addr constant [3 x i8] c"%s\00", align 1
@.str.2 = private unnamed_addr constant [7 x i8] c"error\0A\00", align 1
@.str.3 = private unnamed_addr constant [5 x i8] c"yes\0A\00", align 1
@.str.4 = private unnamed_addr constant [4 x i8] c"no\0A\00", align 1

; Function Attrs: noinline nounwind uwtable
define dso_local i32 @main() #0 {
  %1 = alloca i32, align 4
  %2 = alloca i32, align 4
  %3 = alloca i32, align 4
  %4 = alloca i32, align 4
  %5 = alloca i32, align 4
  %6 = alloca i32, align 4
  %7 = alloca double, align 8
  %8 = alloca double, align 8
  %9 = alloca [501 x i8], align 16
  %10 = alloca [501 x i8], align 16
  store i32 0, i32* %1, align 4
  store i32 0, i32* %4, align 4
  %11 = call i32 (i8*, ...) @__isoc99_scanf(i8* getelementptr inbounds ([4 x i8], [4 x i8]* @.str, i64 0, i64 0), double* %8)
  %12 = getelementptr inbounds [501 x i8], [501 x i8]* %9, i64 0, i64 0
  %13 = call i32 (i8*, ...) @__isoc99_scanf(i8* getelementptr inbounds ([3 x i8], [3 x i8]* @.str.1, i64 0, i64 0), i8* %12)
  %14 = getelementptr inbounds [501 x i8], [501 x i8]* %10, i64 0, i64 0
  %15 = call i32 (i8*, ...) @__isoc99_scanf(i8* getelementptr inbounds ([3 x i8], [3 x i8]* @.str.1, i64 0, i64 0), i8* %14)
  %16 = getelementptr inbounds [501 x i8], [501 x i8]* %9, i64 0, i64 0
  %17 = call i64 @strlen(i8* %16) #3
  %18 = trunc i64 %17 to i32
  store i32 %18, i32* %3, align 4
  %19 = getelementptr inbounds [501 x i8], [501 x i8]* %10, i64 0, i64 0
  %20 = call i64 @strlen(i8* %19) #3
  %21 = trunc i64 %20 to i32
  store i32 %21, i32* %5, align 4
  %22 = load i32, i32* %3, align 4
  %23 = load i32, i32* %5, align 4
  %24 = icmp ne i32 %22, %23
  br i1 %24, label %25, label %27

25:                                               ; preds = %0
  %26 = call i32 (i8*, ...) @printf(i8* getelementptr inbounds ([7 x i8], [7 x i8]* @.str.2, i64 0, i64 0))
  br label %133

27:                                               ; preds = %0
  store i32 1, i32* %6, align 4
  store i32 0, i32* %2, align 4
  br label %28

28:                                               ; preds = %106, %27
  %29 = load i32, i32* %2, align 4
  %30 = load i32, i32* %3, align 4
  %31 = icmp slt i32 %29, %30
  br i1 %31, label %32, label %109

32:                                               ; preds = %28
  %33 = load i32, i32* %2, align 4
  %34 = sext i32 %33 to i64
  %35 = getelementptr inbounds [501 x i8], [501 x i8]* %9, i64 0, i64 %34
  %36 = load i8, i8* %35, align 1
  %37 = sext i8 %36 to i32
  %38 = icmp ne i32 %37, 65
  br i1 %38, label %39, label %60

39:                                               ; preds = %32
  %40 = load i32, i32* %2, align 4
  %41 = sext i32 %40 to i64
  %42 = getelementptr inbounds [501 x i8], [501 x i8]* %9, i64 0, i64 %41
  %43 = load i8, i8* %42, align 1
  %44 = sext i8 %43 to i32
  %45 = icmp ne i32 %44, 84
  br i1 %45, label %46, label %60

46:                                               ; preds = %39
  %47 = load i32, i32* %2, align 4
  %48 = sext i32 %47 to i64
  %49 = getelementptr inbounds [501 x i8], [501 x i8]* %9, i64 0, i64 %48
  %50 = load i8, i8* %49, align 1
  %51 = sext i8 %50 to i32
  %52 = icmp ne i32 %51, 67
  br i1 %52, label %53, label %60

53:                                               ; preds = %46
  %54 = load i32, i32* %2, align 4
  %55 = sext i32 %54 to i64
  %56 = getelementptr inbounds [501 x i8], [501 x i8]* %9, i64 0, i64 %55
  %57 = load i8, i8* %56, align 1
  %58 = sext i8 %57 to i32
  %59 = icmp ne i32 %58, 71
  br i1 %59, label %88, label %60

60:                                               ; preds = %53, %46, %39, %32
  %61 = load i32, i32* %2, align 4
  %62 = sext i32 %61 to i64
  %63 = getelementptr inbounds [501 x i8], [501 x i8]* %10, i64 0, i64 %62
  %64 = load i8, i8* %63, align 1
  %65 = sext i8 %64 to i32
  %66 = icmp ne i32 %65, 65
  br i1 %66, label %67, label %89

67:                                               ; preds = %60
  %68 = load i32, i32* %2, align 4
  %69 = sext i32 %68 to i64
  %70 = getelementptr inbounds [501 x i8], [501 x i8]* %10, i64 0, i64 %69
  %71 = load i8, i8* %70, align 1
  %72 = sext i8 %71 to i32
  %73 = icmp ne i32 %72, 84
  br i1 %73, label %74, label %89

74:                                               ; preds = %67
  %75 = load i32, i32* %2, align 4
  %76 = sext i32 %75 to i64
  %77 = getelementptr inbounds [501 x i8], [501 x i8]* %10, i64 0, i64 %76
  %78 = load i8, i8* %77, align 1
  %79 = sext i8 %78 to i32
  %80 = icmp ne i32 %79, 67
  br i1 %80, label %81, label %89

81:                                               ; preds = %74
  %82 = load i32, i32* %2, align 4
  %83 = sext i32 %82 to i64
  %84 = getelementptr inbounds [501 x i8], [501 x i8]* %10, i64 0, i64 %83
  %85 = load i8, i8* %84, align 1
  %86 = sext i8 %85 to i32
  %87 = icmp ne i32 %86, 71
  br i1 %87, label %88, label %89

88:                                               ; preds = %81, %53
  store i32 0, i32* %6, align 4
  br label %109

89:                                               ; preds = %81, %74, %67, %60
  %90 = load i32, i32* %2, align 4
  %91 = sext i32 %90 to i64
  %92 = getelementptr inbounds [501 x i8], [501 x i8]* %9, i64 0, i64 %91
  %93 = load i8, i8* %92, align 1
  %94 = sext i8 %93 to i32
  %95 = load i32, i32* %2, align 4
  %96 = sext i32 %95 to i64
  %97 = getelementptr inbounds [501 x i8], [501 x i8]* %10, i64 0, i64 %96
  %98 = load i8, i8* %97, align 1
  %99 = sext i8 %98 to i32
  %100 = icmp eq i32 %94, %99
  br i1 %100, label %101, label %104

101:                                              ; preds = %89
  %102 = load i32, i32* %4, align 4
  %103 = add nsw i32 %102, 1
  store i32 %103, i32* %4, align 4
  br label %104

104:                                              ; preds = %101, %89
  br label %105

105:                                              ; preds = %104
  br label %106

106:                                              ; preds = %105
  %107 = load i32, i32* %2, align 4
  %108 = add nsw i32 %107, 1
  store i32 %108, i32* %2, align 4
  br label %28

109:                                              ; preds = %88, %28
  %110 = load i32, i32* %6, align 4
  %111 = icmp eq i32 %110, 1
  br i1 %111, label %112, label %127

112:                                              ; preds = %109
  %113 = load i32, i32* %4, align 4
  %114 = sitofp i32 %113 to double
  %115 = fmul double 1.000000e+00, %114
  %116 = load i32, i32* %3, align 4
  %117 = sitofp i32 %116 to double
  %118 = fdiv double %115, %117
  store double %118, double* %7, align 8
  %119 = load double, double* %7, align 8
  %120 = load double, double* %8, align 8
  %121 = fcmp ogt double %119, %120
  br i1 %121, label %122, label %124

122:                                              ; preds = %112
  %123 = call i32 (i8*, ...) @printf(i8* getelementptr inbounds ([5 x i8], [5 x i8]* @.str.3, i64 0, i64 0))
  br label %126

124:                                              ; preds = %112
  %125 = call i32 (i8*, ...) @printf(i8* getelementptr inbounds ([4 x i8], [4 x i8]* @.str.4, i64 0, i64 0))
  br label %126

126:                                              ; preds = %124, %122
  br label %127

127:                                              ; preds = %126, %109
  %128 = load i32, i32* %6, align 4
  %129 = icmp eq i32 %128, 0
  br i1 %129, label %130, label %132

130:                                              ; preds = %127
  %131 = call i32 (i8*, ...) @printf(i8* getelementptr inbounds ([7 x i8], [7 x i8]* @.str.2, i64 0, i64 0))
  br label %132

132:                                              ; preds = %130, %127
  br label %133

133:                                              ; preds = %132, %25
  ret i32 0
}

declare dso_local i32 @__isoc99_scanf(i8*, ...) #1

; Function Attrs: nounwind readonly
declare dso_local i64 @strlen(i8*) #2

declare dso_local i32 @printf(i8*, ...) #1


!llvm.module.flags = !{!0}
!llvm.ident = !{!1}

!0 = !{i32 1, !"wchar_size", i32 4}
!1 = !{!"clang version 10.0.0-4ubuntu1 "}
